; Function Attrs: mustprogress uwtable
define { i64, ptr } @_ZNK8facebook5velox13LocalReadFile5preadEmmPv(ptr nocapture noundef nonnull align 8 dereferenceable(64) %this, i64 noundef %offset, i64 noundef %length, ptr noundef %buf) unnamed_addr #0 align 2 {
entry:
  %bytesRead_.i = getelementptr inbounds i8, ptr %this, i64 8
  %0 = atomicrmw add ptr %bytesRead_.i, i64 %length seq_cst, align 8
  %fd_.i = getelementptr inbounds i8, ptr %this, i64 48
  %1 = load i32, ptr %fd_.i, align 8
  %call2.i = tail call i64 @pread(i32 noundef %1, ptr noundef %buf, i64 noundef %length, i64 noundef %offset)
  %cmp.not.i = icmp eq i64 %call2.i, %length
  br i1 %cmp.not.i, label %_ZNK8facebook5velox13LocalReadFile13preadInternalEmmPc.exit, label %if.then.i

if.then.i:                                        ; preds = %entry
  tail call void @llvm.trap()
  unreachable

_ZNK8facebook5velox13LocalReadFile13preadInternalEmmPc.exit: ; preds = %entry
  %.fca.0.insert = insertvalue { i64, ptr } poison, i64 %length, 0
  %.fca.1.insert = insertvalue { i64, ptr } %.fca.0.insert, ptr %buf, 1
  ret { i64, ptr } %.fca.1.insert
}